target datalayout = "e-m:e-p270:32:32-p271:32:32-p272:64:64-i64:64-i128:128-f80:128-n8:16:32:64-S128"
target triple = "x86_64-pc-linux-gnu"

@trace2_redact = internal global i32 1, align 4
@.str.8 = private unnamed_addr constant [27 x i8] c"size_t overflow: %lu * %lu\00", align 1
@.str.9 = private unnamed_addr constant [9 x i8] c"https://\00", align 1
@.str.10 = private unnamed_addr constant [8 x i8] c"http://\00", align 1
@.str.11 = private unnamed_addr constant [3 x i8] c"@/\00", align 1
@.str.12 = private unnamed_addr constant [18 x i8] c"%.*s:<REDACTED>%s\00", align 1

; Function Attrs: inlinehint nounwind uwtable
define internal zeroext i1 @skip_prefix(ptr noundef %0, ptr noundef %1, ptr noundef %2) #7 {
  %4 = alloca i1, align 1
  %5 = alloca ptr, align 8
  %6 = alloca ptr, align 8
  %7 = alloca ptr, align 8
  store ptr %0, ptr %5, align 8, !tbaa !4
  store ptr %1, ptr %6, align 8, !tbaa !4
  store ptr %2, ptr %7, align 8, !tbaa !27
  br label %8

8:                                                ; preds = %16, %3
  %9 = load ptr, ptr %6, align 8, !tbaa !4
  %10 = load i8, ptr %9, align 1, !tbaa !92
  %11 = icmp ne i8 %10, 0
  br i1 %11, label %15, label %12

12:                                               ; preds = %8
  %13 = load ptr, ptr %5, align 8, !tbaa !4
  %14 = load ptr, ptr %7, align 8, !tbaa !27
  store ptr %13, ptr %14, align 8, !tbaa !4
  store i1 true, ptr %4, align 1
  br label %27

15:                                               ; preds = %8
  br label %16

16:                                               ; preds = %15
  %17 = load ptr, ptr %5, align 8, !tbaa !4
  %18 = getelementptr inbounds nuw i8, ptr %17, i32 1
  store ptr %18, ptr %5, align 8, !tbaa !4
  %19 = load i8, ptr %17, align 1, !tbaa !92
  %20 = sext i8 %19 to i32
  %21 = load ptr, ptr %6, align 8, !tbaa !4
  %22 = getelementptr inbounds nuw i8, ptr %21, i32 1
  store ptr %22, ptr %6, align 8, !tbaa !4
  %23 = load i8, ptr %21, align 1, !tbaa !92
  %24 = sext i8 %23 to i32
  %25 = icmp eq i32 %20, %24
  br i1 %25, label %8, label %26, !llvm.loop !129

26:                                               ; preds = %16
  store i1 false, ptr %4, align 1
  br label %27

27:                                               ; preds = %26, %12
  %28 = load i1, ptr %4, align 1
  ret i1 %28
}

; Function Attrs: inlinehint nounwind uwtable
define internal i64 @st_mult(i64 noundef %0, i64 noundef %1) #7 {
  %3 = alloca i64, align 8
  %4 = alloca i64, align 8
  store i64 %0, ptr %3, align 8, !tbaa !21
  store i64 %1, ptr %4, align 8, !tbaa !21
  %5 = load i64, ptr %3, align 8, !tbaa !21
  %6 = icmp ne i64 %5, 0
  br i1 %6, label %7, label %15

7:                                                ; preds = %2
  %8 = load i64, ptr %4, align 8, !tbaa !21
  %9 = load i64, ptr %3, align 8, !tbaa !21
  %10 = udiv i64 -1, %9
  %11 = icmp ugt i64 %8, %10
  br i1 %11, label %12, label %15

12:                                               ; preds = %7
  %13 = load i64, ptr %3, align 8, !tbaa !21
  %14 = load i64, ptr %4, align 8, !tbaa !21
  call void (ptr, ...) @die(ptr noundef @.str.8, i64 noundef %13, i64 noundef %14) #11
  unreachable

15:                                               ; preds = %7, %2
  %16 = load i64, ptr %3, align 8, !tbaa !21
  %17 = load i64, ptr %4, align 8, !tbaa !21
  %18 = mul i64 %16, %17
  ret i64 %18
}

; Function Attrs: nounwind uwtable
define internal ptr @redact_arg(ptr noundef %0) #0 {
  %2 = alloca ptr, align 8
  %3 = alloca ptr, align 8
  %4 = alloca ptr, align 8
  %5 = alloca ptr, align 8
  %6 = alloca i64, align 8
  %7 = alloca i32, align 4
  store ptr %0, ptr %3, align 8, !tbaa !4
  call void @llvm.lifetime.start.p0(i64 8, ptr %4) #9
  call void @llvm.lifetime.start.p0(i64 8, ptr %5) #9
  call void @llvm.lifetime.start.p0(i64 8, ptr %6) #9
  %8 = load i32, ptr @trace2_redact, align 4, !tbaa !9
  %9 = icmp ne i32 %8, 0
  br i1 %9, label %10, label %16

10:                                               ; preds = %1
  %11 = load ptr, ptr %3, align 8, !tbaa !4
  %12 = call zeroext i1 @skip_prefix(ptr noundef %11, ptr noundef @.str.9, ptr noundef %4)
  br i1 %12, label %18, label %13

13:                                               ; preds = %10
  %14 = load ptr, ptr %3, align 8, !tbaa !4
  %15 = call zeroext i1 @skip_prefix(ptr noundef %14, ptr noundef @.str.10, ptr noundef %4)
  br i1 %15, label %18, label %16

16:                                               ; preds = %13, %1
  %17 = load ptr, ptr %3, align 8, !tbaa !4
  store ptr %17, ptr %2, align 8
  store i32 1, ptr %7, align 4
  br label %49

18:                                               ; preds = %13, %10
  %19 = load ptr, ptr %4, align 8, !tbaa !4
  %20 = call i64 @strcspn(ptr noundef %19, ptr noundef @.str.11) #10
  store i64 %20, ptr %6, align 8, !tbaa !21
  %21 = load ptr, ptr %4, align 8, !tbaa !4
  %22 = load i64, ptr %6, align 8, !tbaa !21
  %23 = getelementptr inbounds nuw i8, ptr %21, i64 %22
  %24 = load i8, ptr %23, align 1, !tbaa !92
  %25 = sext i8 %24 to i32
  %26 = icmp ne i32 %25, 64
  br i1 %26, label %27, label %29

27:                                               ; preds = %18
  %28 = load ptr, ptr %3, align 8, !tbaa !4
  store ptr %28, ptr %2, align 8
  store i32 1, ptr %7, align 4
  br label %49

29:                                               ; preds = %18
  %30 = load ptr, ptr %4, align 8, !tbaa !4
  %31 = load i64, ptr %6, align 8, !tbaa !21
  %32 = call ptr @memchr(ptr noundef %30, i32 noundef 58, i64 noundef %31) #10
  store ptr %32, ptr %5, align 8, !tbaa !4
  %33 = load ptr, ptr %5, align 8, !tbaa !4
  %34 = icmp ne ptr %33, null
  br i1 %34, label %37, label %35

35:                                               ; preds = %29
  %36 = load ptr, ptr %3, align 8, !tbaa !4
  store ptr %36, ptr %2, align 8
  store i32 1, ptr %7, align 4
  br label %49

37:                                               ; preds = %29
  %38 = load ptr, ptr %5, align 8, !tbaa !4
  %39 = load ptr, ptr %3, align 8, !tbaa !4
  %40 = ptrtoint ptr %38 to i64
  %41 = ptrtoint ptr %39 to i64
  %42 = sub i64 %40, %41
  %43 = trunc i64 %42 to i32
  %44 = load ptr, ptr %3, align 8, !tbaa !4
  %45 = load ptr, ptr %4, align 8, !tbaa !4
  %46 = load i64, ptr %6, align 8, !tbaa !21
  %47 = getelementptr inbounds nuw i8, ptr %45, i64 %46
  %48 = call ptr (ptr, ...) @xstrfmt(ptr noundef @.str.12, i32 noundef %43, ptr noundef %44, ptr noundef %47)
  store ptr %48, ptr %2, align 8
  store i32 1, ptr %7, align 4
  br label %49

49:                                               ; preds = %37, %35, %27, %16
  call void @llvm.lifetime.end.p0(i64 8, ptr %6) #9
  call void @llvm.lifetime.end.p0(i64 8, ptr %5) #9
  call void @llvm.lifetime.end.p0(i64 8, ptr %4) #9
  %50 = load ptr, ptr %2, align 8
  ret ptr %50
}

; Function Attrs: nounwind uwtable
define internal ptr @redact_argv(ptr noundef %0) #0 {
  %2 = alloca ptr, align 8
  %3 = alloca ptr, align 8
  %4 = alloca i32, align 4
  %5 = alloca i32, align 4
  %6 = alloca ptr, align 8
  %7 = alloca ptr, align 8
  %8 = alloca i32, align 4
  store ptr %0, ptr %3, align 8, !tbaa !27
  call void @llvm.lifetime.start.p0(i64 4, ptr %4) #9
  call void @llvm.lifetime.start.p0(i64 4, ptr %5) #9
  call void @llvm.lifetime.start.p0(i64 8, ptr %6) #9
  store ptr null, ptr %6, align 8, !tbaa !4
  call void @llvm.lifetime.start.p0(i64 8, ptr %7) #9
  %9 = load i32, ptr @trace2_redact, align 4, !tbaa !9
  %10 = icmp ne i32 %9, 0
  br i1 %10, label %13, label %11

11:                                               ; preds = %1
  %12 = load ptr, ptr %3, align 8, !tbaa !27
  store ptr %12, ptr %2, align 8
  store i32 1, ptr %8, align 4
  br label %130

13:                                               ; preds = %1
  store i32 0, ptr %4, align 4, !tbaa !9
  br label %14

14:                                               ; preds = %36, %13
  %15 = load ptr, ptr %3, align 8, !tbaa !27
  %16 = load i32, ptr %4, align 4, !tbaa !9
  %17 = sext i32 %16 to i64
  %18 = getelementptr inbounds ptr, ptr %15, i64 %17
  %19 = load ptr, ptr %18, align 8, !tbaa !4
  %20 = icmp ne ptr %19, null
  br i1 %20, label %21, label %39

21:                                               ; preds = %14
  %22 = load ptr, ptr %3, align 8, !tbaa !27
  %23 = load i32, ptr %4, align 4, !tbaa !9
  %24 = sext i32 %23 to i64
  %25 = getelementptr inbounds ptr, ptr %22, i64 %24
  %26 = load ptr, ptr %25, align 8, !tbaa !4
  %27 = call ptr @redact_arg(ptr noundef %26)
  store ptr %27, ptr %6, align 8, !tbaa !4
  %28 = load ptr, ptr %3, align 8, !tbaa !27
  %29 = load i32, ptr %4, align 4, !tbaa !9
  %30 = sext i32 %29 to i64
  %31 = getelementptr inbounds ptr, ptr %28, i64 %30
  %32 = load ptr, ptr %31, align 8, !tbaa !4
  %33 = icmp ne ptr %27, %32
  br i1 %33, label %34, label %35

34:                                               ; preds = %21
  br label %39

35:                                               ; preds = %21
  br label %36

36:                                               ; preds = %35
  %37 = load i32, ptr %4, align 4, !tbaa !9
  %38 = add nsw i32 %37, 1
  store i32 %38, ptr %4, align 4, !tbaa !9
  br label %14, !llvm.loop !31

39:                                               ; preds = %34, %14
  %40 = load ptr, ptr %3, align 8, !tbaa !27
  %41 = load i32, ptr %4, align 4, !tbaa !9
  %42 = sext i32 %41 to i64
  %43 = getelementptr inbounds ptr, ptr %40, i64 %42
  %44 = load ptr, ptr %43, align 8, !tbaa !4
  %45 = icmp ne ptr %44, null
  br i1 %45, label %48, label %46

46:                                               ; preds = %39
  %47 = load ptr, ptr %3, align 8, !tbaa !27
  store ptr %47, ptr %2, align 8
  store i32 1, ptr %8, align 4
  br label %130

48:                                               ; preds = %39
  store i32 0, ptr %5, align 4, !tbaa !9
  br label %49

49:                                               ; preds = %57, %48
  %50 = load ptr, ptr %3, align 8, !tbaa !27
  %51 = load i32, ptr %5, align 4, !tbaa !9
  %52 = sext i32 %51 to i64
  %53 = getelementptr inbounds ptr, ptr %50, i64 %52
  %54 = load ptr, ptr %53, align 8, !tbaa !4
  %55 = icmp ne ptr %54, null
  br i1 %55, label %56, label %60

56:                                               ; preds = %49
  br label %57

57:                                               ; preds = %56
  %58 = load i32, ptr %5, align 4, !tbaa !9
  %59 = add nsw i32 %58, 1
  store i32 %59, ptr %5, align 4, !tbaa !9
  br label %49, !llvm.loop !32

60:                                               ; preds = %49
  %61 = load i32, ptr %5, align 4, !tbaa !9
  %62 = add nsw i32 %61, 1
  %63 = sext i32 %62 to i64
  %64 = call i64 @st_mult(i64 noundef 8, i64 noundef %63)
  %65 = call ptr @xmalloc(i64 noundef %64)
  store ptr %65, ptr %7, align 8, !tbaa !27
  %66 = load ptr, ptr %7, align 8, !tbaa !27
  %67 = load i32, ptr %5, align 4, !tbaa !9
  %68 = sext i32 %67 to i64
  %69 = getelementptr inbounds ptr, ptr %66, i64 %68
  store ptr null, ptr %69, align 8, !tbaa !4
  store i32 0, ptr %5, align 4, !tbaa !9
  br label %70

70:                                               ; preds = %84, %60
  %71 = load i32, ptr %5, align 4, !tbaa !9
  %72 = load i32, ptr %4, align 4, !tbaa !9
  %73 = icmp slt i32 %71, %72
  br i1 %73, label %74, label %87

74:                                               ; preds = %70
  %75 = load ptr, ptr %3, align 8, !tbaa !27
  %76 = load i32, ptr %5, align 4, !tbaa !9
  %77 = sext i32 %76 to i64
  %78 = getelementptr inbounds ptr, ptr %75, i64 %77
  %79 = load ptr, ptr %78, align 8, !tbaa !4
  %80 = load ptr, ptr %7, align 8, !tbaa !27
  %81 = load i32, ptr %5, align 4, !tbaa !9
  %82 = sext i32 %81 to i64
  %83 = getelementptr inbounds ptr, ptr %80, i64 %82
  store ptr %79, ptr %83, align 8, !tbaa !4
  br label %84

84:                                               ; preds = %74
  %85 = load i32, ptr %5, align 4, !tbaa !9
  %86 = add nsw i32 %85, 1
  store i32 %86, ptr %5, align 4, !tbaa !9
  br label %70, !llvm.loop !33

87:                                               ; preds = %70
  %88 = load ptr, ptr %6, align 8, !tbaa !4
  %89 = load ptr, ptr %7, align 8, !tbaa !27
  %90 = load i32, ptr %4, align 4, !tbaa !9
  %91 = sext i32 %90 to i64
  %92 = getelementptr inbounds ptr, ptr %89, i64 %91
  store ptr %88, ptr %92, align 8, !tbaa !4
  %93 = load i32, ptr %4, align 4, !tbaa !9
  %94 = add nsw i32 %93, 1
  store i32 %94, ptr %4, align 4, !tbaa !9
  br label %95

95:                                               ; preds = %125, %87
  %96 = load ptr, ptr %3, align 8, !tbaa !27
  %97 = load i32, ptr %4, align 4, !tbaa !9
  %98 = sext i32 %97 to i64
  %99 = getelementptr inbounds ptr, ptr %96, i64 %98
  %100 = load ptr, ptr %99, align 8, !tbaa !4
  %101 = icmp ne ptr %100, null
  br i1 %101, label %102, label %128

102:                                              ; preds = %95
  %103 = load ptr, ptr %3, align 8, !tbaa !27
  %104 = load i32, ptr %4, align 4, !tbaa !9
  %105 = sext i32 %104 to i64
  %106 = getelementptr inbounds ptr, ptr %103, i64 %105
  %107 = load ptr, ptr %106, align 8, !tbaa !4
  %108 = call ptr @redact_arg(ptr noundef %107)
  store ptr %108, ptr %6, align 8, !tbaa !4
  %109 = load ptr, ptr %6, align 8, !tbaa !4
  %110 = icmp ne ptr %109, null
  br i1 %110, label %111, label %113

111:                                              ; preds = %102
  %112 = load ptr, ptr %6, align 8, !tbaa !4
  br label %119

113:                                              ; preds = %102
  %114 = load ptr, ptr %3, align 8, !tbaa !27
  %115 = load i32, ptr %4, align 4, !tbaa !9
  %116 = sext i32 %115 to i64
  %117 = getelementptr inbounds ptr, ptr %114, i64 %116
  %118 = load ptr, ptr %117, align 8, !tbaa !4
  br label %119

119:                                              ; preds = %113, %111
  %120 = phi ptr [ %112, %111 ], [ %118, %113 ]
  %121 = load ptr, ptr %7, align 8, !tbaa !27
  %122 = load i32, ptr %4, align 4, !tbaa !9
  %123 = sext i32 %122 to i64
  %124 = getelementptr inbounds ptr, ptr %121, i64 %123
  store ptr %120, ptr %124, align 8, !tbaa !4
  br label %125

125:                                              ; preds = %119
  %126 = load i32, ptr %4, align 4, !tbaa !9
  %127 = add nsw i32 %126, 1
  store i32 %127, ptr %4, align 4, !tbaa !9
  br label %95, !llvm.loop !34

128:                                              ; preds = %95
  %129 = load ptr, ptr %7, align 8, !tbaa !27
  store ptr %129, ptr %2, align 8
  store i32 1, ptr %8, align 4
  br label %130

130:                                              ; preds = %128, %46, %11
  call void @llvm.lifetime.end.p0(i64 8, ptr %7) #9
  call void @llvm.lifetime.end.p0(i64 8, ptr %6) #9
  call void @llvm.lifetime.end.p0(i64 4, ptr %5) #9
  call void @llvm.lifetime.end.p0(i64 4, ptr %4) #9
  %131 = load ptr, ptr %2, align 8
  ret ptr %131
}