; Function Attrs: nounwind uwtable
define internal fastcc ptr @redact_argv(ptr noundef readonly %0) unnamed_addr #0 {
  %.b = load i1, ptr @trace2_redact, align 4
  br i1 %.b, label %.thread, label %.preheader84

.preheader84:                                     ; preds = %1
  %2 = load ptr, ptr %0, align 8, !tbaa !27
  %.not90 = icmp eq ptr %2, null
  br i1 %.not90, label %.thread, label %.lr.ph

.lr.ph:                                           ; preds = %.preheader84, %redact_arg.exit.thread
  %.b.i = phi i1 [ %.b.i126135, %redact_arg.exit.thread ], [ false, %.preheader84 ]
  %indvars.iv119 = phi i64 [ %indvars.iv.next120, %redact_arg.exit.thread ], [ 1, %.preheader84 ]
  %indvars.iv116 = phi i32 [ %indvars.iv.next117, %redact_arg.exit.thread ], [ 0, %.preheader84 ]
  %indvars.iv = phi i64 [ %indvars.iv.next, %redact_arg.exit.thread ], [ 0, %.preheader84 ]
  %3 = phi ptr [ %26, %redact_arg.exit.thread ], [ %2, %.preheader84 ]
  %4 = getelementptr inbounds nuw ptr, ptr %0, i64 %indvars.iv
  br i1 %.b.i, label %redact_arg.exit.thread, label %.preheader.preheader.i

.preheader.preheader.i:                           ; preds = %.lr.ph
  %scevgep.i = getelementptr i8, ptr %3, i64 8
  br label %.preheader.i

.preheader.i:                                     ; preds = %5, %.preheader.preheader.i
  %.07.i.i = phi ptr [ %7, %5 ], [ %3, %.preheader.preheader.i ]
  %.06.i.idx.i = phi i64 [ %.06.i.add.i, %5 ], [ 0, %.preheader.preheader.i ]
  %exitcond.i = icmp eq i64 %.06.i.idx.i, 8
  br i1 %exitcond.i, label %skip_prefix.exit.thread.i, label %5

5:                                                ; preds = %.preheader.i
  %.06.i.ptr.i = getelementptr inbounds nuw i8, ptr @.str.9, i64 %.06.i.idx.i
  %6 = load i8, ptr %.06.i.ptr.i, align 1, !tbaa !30
  %7 = getelementptr inbounds nuw i8, ptr %.07.i.i, i64 1
  %8 = load i8, ptr %.07.i.i, align 1, !tbaa !30
  %.06.i.add.i = add nuw nsw i64 %.06.i.idx.i, 1
  %9 = icmp eq i8 %8, %6
  br i1 %9, label %.preheader.i, label %skip_prefix.exit.preheader.i, !llvm.loop !31

skip_prefix.exit.preheader.i:                     ; preds = %5
  %scevgep27.i = getelementptr i8, ptr %3, i64 7
  br label %skip_prefix.exit.i

skip_prefix.exit.i:                               ; preds = %10, %skip_prefix.exit.preheader.i
  %.07.i14.i = phi ptr [ %12, %10 ], [ %3, %skip_prefix.exit.preheader.i ]
  %.06.i15.idx.i = phi i64 [ %.06.i15.add.i, %10 ], [ 0, %skip_prefix.exit.preheader.i ]
  %exitcond28.i = icmp eq i64 %.06.i15.idx.i, 7
  br i1 %exitcond28.i, label %skip_prefix.exit.thread.i, label %10

10:                                               ; preds = %skip_prefix.exit.i
  %.06.i15.ptr.i = getelementptr inbounds nuw i8, ptr @.str.10, i64 %.06.i15.idx.i
  %11 = load i8, ptr %.06.i15.ptr.i, align 1, !tbaa !30
  %12 = getelementptr inbounds nuw i8, ptr %.07.i14.i, i64 1
  %13 = load i8, ptr %.07.i14.i, align 1, !tbaa !30
  %.06.i15.add.i = add nuw nsw i64 %.06.i15.idx.i, 1
  %14 = icmp eq i8 %13, %11
  br i1 %14, label %skip_prefix.exit.i, label %redact_arg.exit.thread, !llvm.loop !31

skip_prefix.exit.thread.i:                        ; preds = %.preheader.i, %skip_prefix.exit.i
  %.018.i = phi ptr [ %scevgep27.i, %skip_prefix.exit.i ], [ %scevgep.i, %.preheader.i ]
  %15 = tail call i64 @strcspn(ptr noundef %.018.i, ptr noundef nonnull @.str.11) #12
  %16 = getelementptr inbounds nuw i8, ptr %.018.i, i64 %15
  %17 = load i8, ptr %16, align 1, !tbaa !30
  %.not.i = icmp eq i8 %17, 64
  br i1 %.not.i, label %18, label %redact_arg.exit.thread

18:                                               ; preds = %skip_prefix.exit.thread.i
  %19 = tail call ptr @memchr(ptr noundef nonnull %.018.i, i32 noundef 58, i64 noundef %15) #12
  %.not13.i = icmp eq ptr %19, null
  br i1 %.not13.i, label %redact_arg.exit.thread, label %redact_arg.exit

redact_arg.exit:                                  ; preds = %18
  %20 = ptrtoint ptr %19 to i64
  %21 = ptrtoint ptr %3 to i64
  %22 = sub i64 %20, %21
  %23 = trunc i64 %22 to i32
  %24 = tail call ptr (ptr, ...) @xstrfmt(ptr noundef nonnull @.str.12, i32 noundef %23, ptr noundef nonnull %3, ptr noundef nonnull %16) #11
  %.b.i.pre = load i1, ptr @trace2_redact, align 4
  %.pre = load ptr, ptr %4, align 8, !tbaa !27
  %.not50 = icmp eq ptr %24, %.pre
  br i1 %.not50, label %redact_arg.exit.thread, label %27

redact_arg.exit.thread:                           ; preds = %10, %18, %skip_prefix.exit.thread.i, %.lr.ph, %redact_arg.exit
  %.b.i126135 = phi i1 [ %.b.i.pre, %redact_arg.exit ], [ false, %18 ], [ false, %skip_prefix.exit.thread.i ], [ true, %.lr.ph ], [ false, %10 ]
  %indvars.iv.next = add nuw nsw i64 %indvars.iv, 1
  %25 = getelementptr inbounds nuw ptr, ptr %0, i64 %indvars.iv.next
  %26 = load ptr, ptr %25, align 8, !tbaa !27
  %.not = icmp eq ptr %26, null
  %indvars.iv.next117 = add nuw i32 %indvars.iv116, 1
  %indvars.iv.next120 = add nuw i64 %indvars.iv119, 1
  br i1 %.not, label %.thread, label %.lr.ph, !llvm.loop !32

27:                                               ; preds = %redact_arg.exit
  %.not51 = icmp eq ptr %.pre, null
  br i1 %.not51, label %.thread, label %.preheader

.preheader:                                       ; preds = %27, %.preheader
  %indvars.iv110 = phi i64 [ %indvars.iv.next111, %.preheader ], [ 0, %27 ]
  %28 = getelementptr inbounds nuw ptr, ptr %0, i64 %indvars.iv110
  %29 = load ptr, ptr %28, align 8, !tbaa !27
  %.not52 = icmp eq ptr %29, null
  %indvars.iv.next111 = add nuw nsw i64 %indvars.iv110, 1
  br i1 %.not52, label %30, label %.preheader, !llvm.loop !33

30:                                               ; preds = %.preheader
  %31 = shl i64 %indvars.iv110, 3
  %32 = add i64 %31, 8
  %33 = and i64 %32, 34359738360
  %34 = tail call ptr @xmalloc(i64 noundef %33) #11
  %35 = getelementptr inbounds nuw ptr, ptr %34, i64 %indvars.iv110
  store ptr null, ptr %35, align 8, !tbaa !27
  %.not99 = icmp eq i64 %indvars.iv, 0
  br i1 %.not99, label %._crit_edge, label %.lr.ph93.preheader

.lr.ph93.preheader:                               ; preds = %30
  %wide.trip.count = zext i32 %indvars.iv116 to i64
  br label %.lr.ph93

.lr.ph93:                                         ; preds = %.lr.ph93.preheader, %.lr.ph93
  %indvars.iv113 = phi i64 [ 0, %.lr.ph93.preheader ], [ %indvars.iv.next114, %.lr.ph93 ]
  %36 = getelementptr inbounds nuw ptr, ptr %0, i64 %indvars.iv113
  %37 = load ptr, ptr %36, align 8, !tbaa !27
  %38 = getelementptr inbounds nuw ptr, ptr %34, i64 %indvars.iv113
  store ptr %37, ptr %38, align 8, !tbaa !27
  %indvars.iv.next114 = add nuw nsw i64 %indvars.iv113, 1
  %exitcond.not = icmp eq i64 %indvars.iv.next114, %wide.trip.count
  br i1 %exitcond.not, label %._crit_edge, label %.lr.ph93, !llvm.loop !34

._crit_edge:                                      ; preds = %.lr.ph93, %30
  %39 = getelementptr inbounds nuw ptr, ptr %34, i64 %indvars.iv
  store ptr %24, ptr %39, align 8, !tbaa !27
  %.14494 = add nuw i64 %indvars.iv, 1
  %40 = and i64 %.14494, 4294967295
  %41 = getelementptr inbounds nuw ptr, ptr %0, i64 %40
  %42 = load ptr, ptr %41, align 8, !tbaa !27
  %.not5395 = icmp eq ptr %42, null
  br i1 %.not5395, label %.thread, label %.lr.ph98.preheader

.lr.ph98.preheader:                               ; preds = %._crit_edge
  %.b.i55.pre128 = load i1, ptr @trace2_redact, align 4
  br label %.lr.ph98

.lr.ph98:                                         ; preds = %.lr.ph98.preheader, %redact_arg.exit77.thread
  %.b.i55 = phi i1 [ %.b.i55.pre128, %.lr.ph98.preheader ], [ %.b.i55130, %redact_arg.exit77.thread ]
  %indvars.iv122 = phi i64 [ %indvars.iv119, %.lr.ph98.preheader ], [ %indvars.iv.next123, %redact_arg.exit77.thread ]
  %43 = phi ptr [ %42, %.lr.ph98.preheader ], [ %71, %redact_arg.exit77.thread ]
  %44 = phi ptr [ %41, %.lr.ph98.preheader ], [ %70, %redact_arg.exit77.thread ]
  br i1 %.b.i55, label %redact_arg.exit77.thread, label %.preheader.preheader.i56

.preheader.preheader.i56:                         ; preds = %.lr.ph98
  %scevgep.i57 = getelementptr i8, ptr %43, i64 8
  br label %.preheader.i58

.preheader.i58:                                   ; preds = %45, %.preheader.preheader.i56
  %.07.i.i59 = phi ptr [ %47, %45 ], [ %43, %.preheader.preheader.i56 ]
  %.06.i.idx.i60 = phi i64 [ %.06.i.add.i63, %45 ], [ 0, %.preheader.preheader.i56 ]
  %exitcond.i61 = icmp eq i64 %.06.i.idx.i60, 8
  br i1 %exitcond.i61, label %skip_prefix.exit.thread.i73, label %45

45:                                               ; preds = %.preheader.i58
  %.06.i.ptr.i62 = getelementptr inbounds nuw i8, ptr @.str.9, i64 %.06.i.idx.i60
  %46 = load i8, ptr %.06.i.ptr.i62, align 1, !tbaa !30
  %47 = getelementptr inbounds nuw i8, ptr %.07.i.i59, i64 1
  %48 = load i8, ptr %.07.i.i59, align 1, !tbaa !30
  %.06.i.add.i63 = add nuw nsw i64 %.06.i.idx.i60, 1
  %49 = icmp eq i8 %48, %46
  br i1 %49, label %.preheader.i58, label %skip_prefix.exit.preheader.i64, !llvm.loop !31

skip_prefix.exit.preheader.i64:                   ; preds = %45
  %scevgep27.i65 = getelementptr i8, ptr %43, i64 7
  br label %skip_prefix.exit.i66

skip_prefix.exit.i66:                             ; preds = %50, %skip_prefix.exit.preheader.i64
  %.07.i14.i67 = phi ptr [ %52, %50 ], [ %43, %skip_prefix.exit.preheader.i64 ]
  %.06.i15.idx.i68 = phi i64 [ %.06.i15.add.i71, %50 ], [ 0, %skip_prefix.exit.preheader.i64 ]
  %exitcond28.i69 = icmp eq i64 %.06.i15.idx.i68, 7
  br i1 %exitcond28.i69, label %skip_prefix.exit.thread.i73, label %50

50:                                               ; preds = %skip_prefix.exit.i66
  %.06.i15.ptr.i70 = getelementptr inbounds nuw i8, ptr @.str.10, i64 %.06.i15.idx.i68
  %51 = load i8, ptr %.06.i15.ptr.i70, align 1, !tbaa !30
  %52 = getelementptr inbounds nuw i8, ptr %.07.i14.i67, i64 1
  %53 = load i8, ptr %.07.i14.i67, align 1, !tbaa !30
  %.06.i15.add.i71 = add nuw nsw i64 %.06.i15.idx.i68, 1
  %54 = icmp eq i8 %53, %51
  br i1 %54, label %skip_prefix.exit.i66, label %redact_arg.exit77, !llvm.loop !31

skip_prefix.exit.thread.i73:                      ; preds = %.preheader.i58, %skip_prefix.exit.i66
  %.018.i74 = phi ptr [ %scevgep27.i65, %skip_prefix.exit.i66 ], [ %scevgep.i57, %.preheader.i58 ]
  %55 = tail call i64 @strcspn(ptr noundef %.018.i74, ptr noundef nonnull @.str.11) #12
  %56 = getelementptr inbounds nuw i8, ptr %.018.i74, i64 %55
  %57 = load i8, ptr %56, align 1, !tbaa !30
  %.not.i75 = icmp eq i8 %57, 64
  br i1 %.not.i75, label %58, label %redact_arg.exit77

58:                                               ; preds = %skip_prefix.exit.thread.i73
  %59 = tail call ptr @memchr(ptr noundef nonnull %.018.i74, i32 noundef 58, i64 noundef %55) #12
  %.not13.i76 = icmp eq ptr %59, null
  br i1 %.not13.i76, label %redact_arg.exit77, label %60

60:                                               ; preds = %58
  %61 = ptrtoint ptr %59 to i64
  %62 = ptrtoint ptr %43 to i64
  %63 = sub i64 %61, %62
  %64 = trunc i64 %63 to i32
  %65 = tail call ptr (ptr, ...) @xstrfmt(ptr noundef nonnull @.str.12, i32 noundef %64, ptr noundef nonnull %43, ptr noundef nonnull %56) #11
  %.b.i55.pre = load i1, ptr @trace2_redact, align 4
  br label %redact_arg.exit77

redact_arg.exit77:                                ; preds = %50, %skip_prefix.exit.thread.i73, %58, %60
  %.b.i55129 = phi i1 [ %.b.i55.pre, %60 ], [ false, %skip_prefix.exit.thread.i73 ], [ false, %58 ], [ false, %50 ]
  %.0.i72 = phi ptr [ %65, %60 ], [ %43, %skip_prefix.exit.thread.i73 ], [ %43, %58 ], [ %43, %50 ]
  %.not54 = icmp eq ptr %.0.i72, null
  br i1 %.not54, label %66, label %redact_arg.exit77.thread

66:                                               ; preds = %redact_arg.exit77
  %67 = load ptr, ptr %44, align 8, !tbaa !27
  br label %redact_arg.exit77.thread

redact_arg.exit77.thread:                         ; preds = %.lr.ph98, %redact_arg.exit77, %66
  %.b.i55130 = phi i1 [ %.b.i55129, %66 ], [ %.b.i55129, %redact_arg.exit77 ], [ true, %.lr.ph98 ]
  %68 = phi ptr [ %67, %66 ], [ %.0.i72, %redact_arg.exit77 ], [ %43, %.lr.ph98 ]
  %69 = getelementptr inbounds nuw ptr, ptr %34, i64 %indvars.iv122
  store ptr %68, ptr %69, align 8, !tbaa !27
  %indvars.iv.next123 = add nuw nsw i64 %indvars.iv122, 1
  %70 = getelementptr inbounds nuw ptr, ptr %0, i64 %indvars.iv.next123
  %71 = load ptr, ptr %70, align 8, !tbaa !27
  %.not53 = icmp eq ptr %71, null
  br i1 %.not53, label %.thread, label %.lr.ph98, !llvm.loop !35

.thread:                                          ; preds = %redact_arg.exit.thread, %redact_arg.exit77.thread, %.preheader84, %._crit_edge, %27, %1
  %.0 = phi ptr [ %0, %1 ], [ %0, %27 ], [ %34, %._crit_edge ], [ %0, %.preheader84 ], [ %34, %redact_arg.exit77.thread ], [ %0, %redact_arg.exit.thread ]
  ret ptr %.0
}